; Function Attrs: mustprogress nofree norecurse nosync nounwind willreturn memory(argmem: readwrite) uwtable
define internal void @pred4x4_dc_14_c(ptr noundef captures(none) %0, ptr readnone captures(none) %1, i64 noundef %2) #1 {
  %4 = lshr i64 %2, 1
  %5 = trunc i64 %4 to i32
  %.neg = mul i64 %4, -4294967296
  %6 = ashr exact i64 %.neg, 31
  %7 = getelementptr inbounds i8, ptr %0, i64 %6
  %8 = load i16, ptr %7, align 2, !tbaa !9
  %9 = zext i16 %8 to i64
  %10 = shl i64 %4, 32
  %sext = sub i64 4294967296, %10
  %11 = ashr exact i64 %sext, 31
  %12 = getelementptr inbounds i8, ptr %0, i64 %11
  %13 = load i16, ptr %12, align 2, !tbaa !9
  %14 = zext i16 %13 to i64
  %sext30 = sub i64 8589934592, %10
  %15 = ashr exact i64 %sext30, 31
  %16 = getelementptr inbounds i8, ptr %0, i64 %15
  %17 = load i16, ptr %16, align 2, !tbaa !9
  %18 = zext i16 %17 to i64
  %sext31 = sub i64 12884901888, %10
  %19 = ashr exact i64 %sext31, 31
  %20 = getelementptr inbounds i8, ptr %0, i64 %19
  %21 = load i16, ptr %20, align 2, !tbaa !9
  %22 = zext i16 %21 to i64
  %23 = getelementptr inbounds i8, ptr %0, i64 -2
  %24 = load i16, ptr %23, align 2, !tbaa !9
  %25 = zext i16 %24 to i64
  %sext32 = add i64 %10, -4294967296
  %26 = ashr exact i64 %sext32, 31
  %27 = getelementptr inbounds i8, ptr %0, i64 %26
  %28 = load i16, ptr %27, align 2, !tbaa !9
  %29 = zext i16 %28 to i64
  %30 = shl nsw i32 %5, 1
  %31 = sext i32 %30 to i64
  %32 = getelementptr i16, ptr %0, i64 %31
  %33 = getelementptr i8, ptr %32, i64 -2
  %34 = load i16, ptr %33, align 2, !tbaa !9
  %35 = zext i16 %34 to i64
  %sext34 = mul i64 %4, 12884901888
  %36 = ashr exact i64 %sext34, 31
  %37 = getelementptr i8, ptr %0, i64 %36
  %38 = getelementptr i8, ptr %37, i64 -2
  %39 = load i16, ptr %38, align 2, !tbaa !9
  %40 = zext i16 %39 to i64
  %41 = add nuw nsw i64 %9, 4
  %42 = add nuw nsw i64 %41, %14
  %43 = add nuw nsw i64 %42, %18
  %44 = add nuw nsw i64 %43, %22
  %45 = add nuw nsw i64 %44, %25
  %46 = add nuw nsw i64 %45, %29
  %47 = add nuw nsw i64 %46, %35
  %48 = add nuw nsw i64 %47, %40
  %49 = lshr i64 %48, 3
  %50 = mul nuw i64 %49, 281479271743489
  store i64 %50, ptr %0, align 8, !tbaa !8
  %51 = ashr exact i64 %10, 31
  %52 = getelementptr inbounds i8, ptr %0, i64 %51
  store i64 %50, ptr %52, align 8, !tbaa !8
  store i64 %50, ptr %32, align 8, !tbaa !8
  store i64 %50, ptr %37, align 8, !tbaa !8
  ret void
}